target datalayout = "e-m:e-p270:32:32-p271:32:32-p272:64:64-i64:64-i128:128-f80:128-n8:16:32:64-S128"
target triple = "x86_64-pc-linux-gnu"

%struct.expert_field = type { i32, i32 }

@ei_gsm_a_gm_extraneous_data = internal global %struct.expert_field zeroinitializer, align 4
@hf_gsm_a_sm_tmgi = internal global i32 0, align 4

; Function Attrs: null_pointer_is_valid sspstrong uwtable
define hidden zeroext i16 @de_sm_tmgi(ptr noundef %0, ptr noundef %1, ptr noundef %2, i32 noundef %3, i32 noundef %4, ptr noundef %5, i32 noundef %6) #1 {
  %8 = alloca i16, align 2
  %9 = alloca ptr, align 8
  %10 = alloca ptr, align 8
  %11 = alloca ptr, align 8
  %12 = alloca i32, align 4
  %13 = alloca i32, align 4
  %14 = alloca ptr, align 8
  %15 = alloca i32, align 4
  %16 = alloca i32, align 4
  %17 = alloca i32, align 4
  store ptr %0, ptr %9, align 8
  store ptr %1, ptr %10, align 8
  store ptr %2, ptr %11, align 8
  store i32 %3, ptr %12, align 4
  store i32 %4, ptr %13, align 4
  store ptr %5, ptr %14, align 8
  store i32 %6, ptr %15, align 4
  call void @llvm.lifetime.start.p0(i64 4, ptr %16) #6
  %18 = load i32, ptr %12, align 4
  store i32 %18, ptr %16, align 4
  %19 = load ptr, ptr %10, align 8
  %20 = load i32, ptr @hf_gsm_a_sm_tmgi, align 4
  %21 = load ptr, ptr %9, align 8
  %22 = load i32, ptr %16, align 4
  %23 = call ptr @proto_tree_add_item(ptr noundef %19, i32 noundef %20, ptr noundef %21, i32 noundef %22, i32 noundef 3, i32 noundef 0)
  %24 = load i32, ptr %16, align 4
  %25 = add i32 %24, 3
  store i32 %25, ptr %16, align 4
  %26 = load i32, ptr %13, align 4
  %27 = load i32, ptr %16, align 4
  %28 = load i32, ptr %12, align 4
  %29 = sub i32 %27, %28
  %30 = icmp ule i32 %26, %29
  br i1 %30, label %31, label %34

31:                                               ; preds = %7
  %32 = load i32, ptr %13, align 4
  %33 = trunc i32 %32 to i16
  store i16 %33, ptr %8, align 2
  store i32 1, ptr %17, align 4
  br label %68

34:                                               ; preds = %7
  %35 = load ptr, ptr %9, align 8
  %36 = load ptr, ptr %11, align 8
  %37 = load ptr, ptr %10, align 8
  %38 = load i32, ptr %16, align 4
  %39 = call i32 @dissect_e212_mcc_mnc(ptr noundef %35, ptr noundef %36, ptr noundef %37, i32 noundef %38, i32 noundef 0, i1 noundef zeroext true)
  store i32 %39, ptr %16, align 4
  %40 = load i32, ptr %13, align 4
  %41 = load i32, ptr %16, align 4
  %42 = load i32, ptr %12, align 4
  %43 = sub i32 %41, %42
  %44 = icmp ugt i32 %40, %43
  br i1 %44, label %45, label %63

45:                                               ; preds = %34
  %46 = load ptr, ptr %10, align 8
  %47 = load ptr, ptr %11, align 8
  %48 = load ptr, ptr %9, align 8
  %49 = load i32, ptr %16, align 4
  %50 = load i32, ptr %13, align 4
  %51 = load i32, ptr %16, align 4
  %52 = load i32, ptr %12, align 4
  %53 = sub i32 %51, %52
  %54 = sub i32 %50, %53
  %55 = call ptr @proto_tree_add_expert(ptr noundef %46, ptr noundef %47, ptr noundef @ei_gsm_a_gm_extraneous_data, ptr noundef %48, i32 noundef %49, i32 noundef %54)
  %56 = load i32, ptr %13, align 4
  %57 = load i32, ptr %16, align 4
  %58 = load i32, ptr %12, align 4
  %59 = sub i32 %57, %58
  %60 = sub i32 %56, %59
  %61 = load i32, ptr %16, align 4
  %62 = add i32 %61, %60
  store i32 %62, ptr %16, align 4
  br label %63

63:                                               ; preds = %45, %34
  %64 = load i32, ptr %16, align 4
  %65 = load i32, ptr %12, align 4
  %66 = sub i32 %64, %65
  %67 = trunc i32 %66 to i16
  store i16 %67, ptr %8, align 2
  store i32 1, ptr %17, align 4
  br label %68

68:                                               ; preds = %63, %31
  call void @llvm.lifetime.end.p0(i64 4, ptr %16) #6
  %69 = load i16, ptr %8, align 2
  ret i16 %69
}