; Function Attrs: null_pointer_is_valid sspstrong uwtable
define hidden zeroext i16 @de_sm_tmgi(ptr noundef %0, ptr noundef %1, ptr noundef %2, i32 noundef %3, i32 noundef %4, ptr readnone captures(none) %5, i32 %6) #1 {
  %8 = load i32, ptr @hf_gsm_a_sm_tmgi, align 4
  %9 = tail call ptr @proto_tree_add_item(ptr noundef %1, i32 noundef %8, ptr noundef %0, i32 noundef %3, i32 noundef 3, i32 noundef 0)
  %10 = icmp ult i32 %4, 4
  br i1 %10, label %20, label %11

11:                                               ; preds = %7
  %12 = add i32 %3, 3
  %13 = tail call i32 @dissect_e212_mcc_mnc(ptr noundef %0, ptr noundef %2, ptr noundef %1, i32 noundef %12, i32 noundef 0, i1 noundef zeroext true)
  %14 = sub i32 %13, %3
  %15 = icmp ugt i32 %4, %14
  br i1 %15, label %16, label %20

16:                                               ; preds = %11
  %17 = sub nuw i32 %4, %14
  %18 = tail call ptr @proto_tree_add_expert(ptr noundef %1, ptr noundef %2, ptr noundef nonnull @ei_gsm_a_gm_extraneous_data, ptr noundef %0, i32 noundef %13, i32 noundef %17)
  %19 = add i32 %17, %13
  %.pre = sub i32 %19, %3
  br label %20

20:                                               ; preds = %11, %16, %7
  %.029.in = phi i32 [ %4, %7 ], [ %.pre, %16 ], [ %14, %11 ]
  %.029 = trunc i32 %.029.in to i16
  ret i16 %.029
}